target datalayout = "e-m:e-p270:32:32-p271:32:32-p272:64:64-i64:64-i128:128-f80:128-n8:16:32:64-S128"
target triple = "x86_64-pc-linux-gnu"

%struct.mq = type { ptr, i32, i32, ptr, ptr, i64, ptr, i64, ptr, i64, ptr, i8, ptr, ptr, [10 x %struct.mq_item] }
%struct.mq_item = type { i32, i64, i64 }
%struct.mcsheng = type { i16, i32, i16, i16, i32, i32, i32, i16, i16, i16, i16, i16, i8, i8, i8, [256 x i8], i32, i32, [256 x <2 x i64>] }
%struct.mstate_aux = type { i32, i32, i16, i32 }

; Function Attrs: alwaysinline nounwind uwtable
define internal ptr @get_aux(ptr noundef %0, i32 noundef %1) #2 {
  %3 = alloca ptr, align 8
  %4 = alloca i32, align 4
  %5 = alloca ptr, align 8
  %6 = alloca ptr, align 8
  store ptr %0, ptr %3, align 8
  store i32 %1, ptr %4, align 4
  call void @llvm.lifetime.start.p0(i64 8, ptr %5) #9
  %7 = load ptr, ptr %3, align 8
  %8 = getelementptr inbounds i8, ptr %7, i64 -64
  store ptr %8, ptr %5, align 8
  call void @llvm.lifetime.start.p0(i64 8, ptr %6) #9
  %9 = load i32, ptr %4, align 4
  %10 = load ptr, ptr %5, align 8
  %11 = load ptr, ptr %3, align 8
  %12 = getelementptr inbounds nuw %struct.mcsheng, ptr %11, i32 0, i32 4
  %13 = load i32, ptr %12, align 4
  %14 = zext i32 %13 to i64
  %15 = getelementptr inbounds nuw i8, ptr %10, i64 %14
  %16 = zext i32 %9 to i64
  %17 = getelementptr inbounds nuw %struct.mstate_aux, ptr %15, i64 %16
  store ptr %17, ptr %6, align 8
  %18 = load ptr, ptr %6, align 8
  call void @llvm.lifetime.end.p0(i64 8, ptr %6) #9
  call void @llvm.lifetime.end.p0(i64 8, ptr %5) #9
  ret ptr %18
}

; Function Attrs: nounwind uwtable
define hidden signext i8 @nfaExecMcSheng16_inAnyAccept(ptr noundef %0, ptr noundef %1) #0 {
  %3 = alloca ptr, align 8
  %4 = alloca ptr, align 8
  %5 = alloca ptr, align 8
  %6 = alloca i16, align 2
  store ptr %0, ptr %3, align 8
  store ptr %1, ptr %4, align 8
  call void @llvm.lifetime.start.p0(i64 8, ptr %5) #9
  %7 = load ptr, ptr %3, align 8
  %8 = getelementptr inbounds nuw i8, ptr %7, i64 64
  store ptr %8, ptr %5, align 8
  call void @llvm.lifetime.start.p0(i64 2, ptr %6) #9
  %9 = load ptr, ptr %4, align 8
  %10 = getelementptr inbounds nuw %struct.mq, ptr %9, i32 0, i32 3
  %11 = load ptr, ptr %10, align 8
  %12 = load i16, ptr %11, align 2
  store i16 %12, ptr %6, align 2
  br label %13

13:                                               ; preds = %2
  br label %14

14:                                               ; preds = %13
  br label %15

15:                                               ; preds = %14
  %16 = load ptr, ptr %5, align 8
  %17 = load i16, ptr %6, align 2
  %18 = zext i16 %17 to i32
  %19 = call ptr @get_aux(ptr noundef %16, i32 noundef %18)
  %20 = getelementptr inbounds nuw %struct.mstate_aux, ptr %19, i32 0, i32 0
  %21 = load i32, ptr %20, align 4
  %22 = icmp ne i32 %21, 0
  %23 = xor i1 %22, true
  %24 = xor i1 %23, true
  %25 = zext i1 %24 to i32
  %26 = trunc i32 %25 to i8
  call void @llvm.lifetime.end.p0(i64 2, ptr %6) #9
  call void @llvm.lifetime.end.p0(i64 8, ptr %5) #9
  ret i8 %26
}